target datalayout = "e-m:e-p270:32:32-p271:32:32-p272:64:64-i64:64-i128:128-f80:128-n8:16:32:64-S128"
target triple = "x86_64-pc-linux-gnu"

@__const.Ntk_SymTryRandomFlips.Rand = private unnamed_addr constant [16 x i32] [i32 17290, i32 20203, i32 19027, i32 12035, i32 14687, i32 10920, i32 10413, i32 261, i32 2072, i32 16899, i32 4480, i32 6192, i32 3978, i32 8343, i32 745, i32 1370], align 16
@s_Truths6 = internal global [6 x i64] [i64 -6148914691236517206, i64 -3689348814741910324, i64 -1085102592571150096, i64 -71777214294589696, i64 -281470681808896, i64 -4294967296], align 16

; Function Attrs: inlinehint nounwind uwtable
define internal void @Abc_TtFlip(ptr noundef %0, i32 noundef %1, i32 noundef %2) #3 {
  %4 = alloca ptr, align 8
  %5 = alloca i32, align 4
  %6 = alloca i32, align 4
  %7 = alloca i32, align 4
  %8 = alloca i32, align 4
  %9 = alloca ptr, align 8
  %10 = alloca i32, align 4
  %11 = alloca i32, align 4
  %12 = alloca i64, align 8
  store ptr %0, ptr %4, align 8, !tbaa !14
  store i32 %1, ptr %5, align 4, !tbaa !8
  store i32 %2, ptr %6, align 4, !tbaa !8
  %13 = load i32, ptr %5, align 4, !tbaa !8
  %14 = icmp eq i32 %13, 1
  br i1 %14, label %15, label %43

15:                                               ; preds = %3
  %16 = load ptr, ptr %4, align 8, !tbaa !14
  %17 = getelementptr inbounds i64, ptr %16, i64 0
  %18 = load i64, ptr %17, align 8, !tbaa !10
  %19 = load i32, ptr %6, align 4, !tbaa !8
  %20 = shl i32 1, %19
  %21 = zext i32 %20 to i64
  %22 = shl i64 %18, %21
  %23 = load i32, ptr %6, align 4, !tbaa !8
  %24 = sext i32 %23 to i64
  %25 = getelementptr inbounds [6 x i64], ptr @s_Truths6, i64 0, i64 %24
  %26 = load i64, ptr %25, align 8, !tbaa !10
  %27 = and i64 %22, %26
  %28 = load ptr, ptr %4, align 8, !tbaa !14
  %29 = getelementptr inbounds i64, ptr %28, i64 0
  %30 = load i64, ptr %29, align 8, !tbaa !10
  %31 = load i32, ptr %6, align 4, !tbaa !8
  %32 = sext i32 %31 to i64
  %33 = getelementptr inbounds [6 x i64], ptr @s_Truths6, i64 0, i64 %32
  %34 = load i64, ptr %33, align 8, !tbaa !10
  %35 = and i64 %30, %34
  %36 = load i32, ptr %6, align 4, !tbaa !8
  %37 = shl i32 1, %36
  %38 = zext i32 %37 to i64
  %39 = lshr i64 %35, %38
  %40 = or i64 %27, %39
  %41 = load ptr, ptr %4, align 8, !tbaa !14
  %42 = getelementptr inbounds i64, ptr %41, i64 0
  store i64 %40, ptr %42, align 8, !tbaa !10
  br label %141

43:                                               ; preds = %3
  %44 = load i32, ptr %6, align 4, !tbaa !8
  %45 = icmp sle i32 %44, 5
  br i1 %45, label %46, label %89

46:                                               ; preds = %43
  call void @llvm.lifetime.start.p0(i64 4, ptr %7) #12
  call void @llvm.lifetime.start.p0(i64 4, ptr %8) #12
  %47 = load i32, ptr %6, align 4, !tbaa !8
  %48 = shl i32 1, %47
  store i32 %48, ptr %8, align 4, !tbaa !8
  store i32 0, ptr %7, align 4, !tbaa !8
  br label %49

49:                                               ; preds = %85, %46
  %50 = load i32, ptr %7, align 4, !tbaa !8
  %51 = load i32, ptr %5, align 4, !tbaa !8
  %52 = icmp slt i32 %50, %51
  br i1 %52, label %53, label %88

53:                                               ; preds = %49
  %54 = load ptr, ptr %4, align 8, !tbaa !14
  %55 = load i32, ptr %7, align 4, !tbaa !8
  %56 = sext i32 %55 to i64
  %57 = getelementptr inbounds i64, ptr %54, i64 %56
  %58 = load i64, ptr %57, align 8, !tbaa !10
  %59 = load i32, ptr %8, align 4, !tbaa !8
  %60 = zext i32 %59 to i64
  %61 = shl i64 %58, %60
  %62 = load i32, ptr %6, align 4, !tbaa !8
  %63 = sext i32 %62 to i64
  %64 = getelementptr inbounds [6 x i64], ptr @s_Truths6, i64 0, i64 %63
  %65 = load i64, ptr %64, align 8, !tbaa !10
  %66 = and i64 %61, %65
  %67 = load ptr, ptr %4, align 8, !tbaa !14
  %68 = load i32, ptr %7, align 4, !tbaa !8
  %69 = sext i32 %68 to i64
  %70 = getelementptr inbounds i64, ptr %67, i64 %69
  %71 = load i64, ptr %70, align 8, !tbaa !10
  %72 = load i32, ptr %6, align 4, !tbaa !8
  %73 = sext i32 %72 to i64
  %74 = getelementptr inbounds [6 x i64], ptr @s_Truths6, i64 0, i64 %73
  %75 = load i64, ptr %74, align 8, !tbaa !10
  %76 = and i64 %71, %75
  %77 = load i32, ptr %8, align 4, !tbaa !8
  %78 = zext i32 %77 to i64
  %79 = lshr i64 %76, %78
  %80 = or i64 %66, %79
  %81 = load ptr, ptr %4, align 8, !tbaa !14
  %82 = load i32, ptr %7, align 4, !tbaa !8
  %83 = sext i32 %82 to i64
  %84 = getelementptr inbounds i64, ptr %81, i64 %83
  store i64 %80, ptr %84, align 8, !tbaa !10
  br label %85

85:                                               ; preds = %53
  %86 = load i32, ptr %7, align 4, !tbaa !8
  %87 = add nsw i32 %86, 1
  store i32 %87, ptr %7, align 4, !tbaa !8
  br label %49, !llvm.loop !20

88:                                               ; preds = %49
  call void @llvm.lifetime.end.p0(i64 4, ptr %8) #12
  call void @llvm.lifetime.end.p0(i64 4, ptr %7) #12
  br label %140

89:                                               ; preds = %43
  call void @llvm.lifetime.start.p0(i64 8, ptr %9) #12
  %90 = load ptr, ptr %4, align 8, !tbaa !14
  %91 = load i32, ptr %5, align 4, !tbaa !8
  %92 = sext i32 %91 to i64
  %93 = getelementptr inbounds i64, ptr %90, i64 %92
  store ptr %93, ptr %9, align 8, !tbaa !14
  call void @llvm.lifetime.start.p0(i64 4, ptr %10) #12
  call void @llvm.lifetime.start.p0(i64 4, ptr %11) #12
  %94 = load i32, ptr %6, align 4, !tbaa !8
  %95 = call i32 @Abc_TtWordNum(i32 noundef %94)
  store i32 %95, ptr %11, align 4, !tbaa !8
  br label %96

96:                                               ; preds = %133, %89
  %97 = load ptr, ptr %4, align 8, !tbaa !14
  %98 = load ptr, ptr %9, align 8, !tbaa !14
  %99 = icmp ult ptr %97, %98
  br i1 %99, label %100, label %139

100:                                              ; preds = %96
  store i32 0, ptr %10, align 4, !tbaa !8
  br label %101

101:                                              ; preds = %129, %100
  %102 = load i32, ptr %10, align 4, !tbaa !8
  %103 = load i32, ptr %11, align 4, !tbaa !8
  %104 = icmp slt i32 %102, %103
  br i1 %104, label %105, label %132

105:                                              ; preds = %101
  call void @llvm.lifetime.start.p0(i64 8, ptr %12) #12
  %106 = load ptr, ptr %4, align 8, !tbaa !14
  %107 = load i32, ptr %10, align 4, !tbaa !8
  %108 = sext i32 %107 to i64
  %109 = getelementptr inbounds i64, ptr %106, i64 %108
  %110 = load i64, ptr %109, align 8, !tbaa !10
  store i64 %110, ptr %12, align 8, !tbaa !10
  %111 = load ptr, ptr %4, align 8, !tbaa !14
  %112 = load i32, ptr %10, align 4, !tbaa !8
  %113 = load i32, ptr %11, align 4, !tbaa !8
  %114 = add nsw i32 %112, %113
  %115 = sext i32 %114 to i64
  %116 = getelementptr inbounds i64, ptr %111, i64 %115
  %117 = load i64, ptr %116, align 8, !tbaa !10
  %118 = load ptr, ptr %4, align 8, !tbaa !14
  %119 = load i32, ptr %10, align 4, !tbaa !8
  %120 = sext i32 %119 to i64
  %121 = getelementptr inbounds i64, ptr %118, i64 %120
  store i64 %117, ptr %121, align 8, !tbaa !10
  %122 = load i64, ptr %12, align 8, !tbaa !10
  %123 = load ptr, ptr %4, align 8, !tbaa !14
  %124 = load i32, ptr %10, align 4, !tbaa !8
  %125 = load i32, ptr %11, align 4, !tbaa !8
  %126 = add nsw i32 %124, %125
  %127 = sext i32 %126 to i64
  %128 = getelementptr inbounds i64, ptr %123, i64 %127
  store i64 %122, ptr %128, align 8, !tbaa !10
  call void @llvm.lifetime.end.p0(i64 8, ptr %12) #12
  br label %129

129:                                              ; preds = %105
  %130 = load i32, ptr %10, align 4, !tbaa !8
  %131 = add nsw i32 %130, 1
  store i32 %131, ptr %10, align 4, !tbaa !8
  br label %101, !llvm.loop !21

132:                                              ; preds = %101
  br label %133

133:                                              ; preds = %132
  %134 = load i32, ptr %11, align 4, !tbaa !8
  %135 = mul nsw i32 2, %134
  %136 = load ptr, ptr %4, align 8, !tbaa !14
  %137 = sext i32 %135 to i64
  %138 = getelementptr inbounds i64, ptr %136, i64 %137
  store ptr %138, ptr %4, align 8, !tbaa !14
  br label %96, !llvm.loop !22

139:                                              ; preds = %96
  call void @llvm.lifetime.end.p0(i64 4, ptr %11) #12
  call void @llvm.lifetime.end.p0(i64 4, ptr %10) #12
  call void @llvm.lifetime.end.p0(i64 8, ptr %9) #12
  br label %140

140:                                              ; preds = %139, %88
  br label %141

141:                                              ; preds = %140, %15
  ret void
}

; Function Attrs: inlinehint nounwind uwtable
define internal void @Abc_TtCopy(ptr noundef %0, ptr noundef %1, i32 noundef %2, i32 noundef %3) #3 {
  %5 = alloca ptr, align 8
  %6 = alloca ptr, align 8
  %7 = alloca i32, align 4
  %8 = alloca i32, align 4
  %9 = alloca i32, align 4
  store ptr %0, ptr %5, align 8, !tbaa !14
  store ptr %1, ptr %6, align 8, !tbaa !14
  store i32 %2, ptr %7, align 4, !tbaa !8
  store i32 %3, ptr %8, align 4, !tbaa !8
  call void @llvm.lifetime.start.p0(i64 4, ptr %9) #12
  %10 = load i32, ptr %8, align 4, !tbaa !8
  %11 = icmp ne i32 %10, 0
  br i1 %11, label %12, label %32

12:                                               ; preds = %4
  store i32 0, ptr %9, align 4, !tbaa !8
  br label %13

13:                                               ; preds = %28, %12
  %14 = load i32, ptr %9, align 4, !tbaa !8
  %15 = load i32, ptr %7, align 4, !tbaa !8
  %16 = icmp slt i32 %14, %15
  br i1 %16, label %17, label %31

17:                                               ; preds = %13
  %18 = load ptr, ptr %6, align 8, !tbaa !14
  %19 = load i32, ptr %9, align 4, !tbaa !8
  %20 = sext i32 %19 to i64
  %21 = getelementptr inbounds i64, ptr %18, i64 %20
  %22 = load i64, ptr %21, align 8, !tbaa !10
  %23 = xor i64 %22, -1
  %24 = load ptr, ptr %5, align 8, !tbaa !14
  %25 = load i32, ptr %9, align 4, !tbaa !8
  %26 = sext i32 %25 to i64
  %27 = getelementptr inbounds i64, ptr %24, i64 %26
  store i64 %23, ptr %27, align 8, !tbaa !10
  br label %28

28:                                               ; preds = %17
  %29 = load i32, ptr %9, align 4, !tbaa !8
  %30 = add nsw i32 %29, 1
  store i32 %30, ptr %9, align 4, !tbaa !8
  br label %13, !llvm.loop !18

31:                                               ; preds = %13
  br label %51

32:                                               ; preds = %4
  store i32 0, ptr %9, align 4, !tbaa !8
  br label %33

33:                                               ; preds = %47, %32
  %34 = load i32, ptr %9, align 4, !tbaa !8
  %35 = load i32, ptr %7, align 4, !tbaa !8
  %36 = icmp slt i32 %34, %35
  br i1 %36, label %37, label %50

37:                                               ; preds = %33
  %38 = load ptr, ptr %6, align 8, !tbaa !14
  %39 = load i32, ptr %9, align 4, !tbaa !8
  %40 = sext i32 %39 to i64
  %41 = getelementptr inbounds i64, ptr %38, i64 %40
  %42 = load i64, ptr %41, align 8, !tbaa !10
  %43 = load ptr, ptr %5, align 8, !tbaa !14
  %44 = load i32, ptr %9, align 4, !tbaa !8
  %45 = sext i32 %44 to i64
  %46 = getelementptr inbounds i64, ptr %43, i64 %45
  store i64 %42, ptr %46, align 8, !tbaa !10
  br label %47

47:                                               ; preds = %37
  %48 = load i32, ptr %9, align 4, !tbaa !8
  %49 = add nsw i32 %48, 1
  store i32 %49, ptr %9, align 4, !tbaa !8
  br label %33, !llvm.loop !19

50:                                               ; preds = %33
  br label %51

51:                                               ; preds = %50, %31
  call void @llvm.lifetime.end.p0(i64 4, ptr %9) #12
  ret void
}

; Function Attrs: inlinehint nounwind uwtable
define internal i32 @Abc_TtWordNum(i32 noundef %0) #3 {
  %2 = alloca i32, align 4
  store i32 %0, ptr %2, align 4, !tbaa !8
  %3 = load i32, ptr %2, align 4, !tbaa !8
  %4 = icmp sle i32 %3, 6
  br i1 %4, label %5, label %6

5:                                                ; preds = %1
  br label %10

6:                                                ; preds = %1
  %7 = load i32, ptr %2, align 4, !tbaa !8
  %8 = sub nsw i32 %7, 6
  %9 = shl i32 1, %8
  br label %10

10:                                               ; preds = %6, %5
  %11 = phi i32 [ 1, %5 ], [ %9, %6 ]
  ret i32 %11
}

; Function Attrs: nounwind uwtable
define void @Ntk_SymTryRandomFlips(ptr noundef %0, ptr noundef %1, i32 noundef %2) #0 {
  %4 = alloca ptr, align 8
  %5 = alloca ptr, align 8
  %6 = alloca i32, align 4
  %7 = alloca [16 x i32], align 16
  %8 = alloca i32, align 4
  %9 = alloca i32, align 4
  %10 = alloca ptr, align 8
  store ptr %0, ptr %4, align 8, !tbaa !14
  store ptr %1, ptr %5, align 8, !tbaa !14
  store i32 %2, ptr %6, align 4, !tbaa !8
  call void @llvm.lifetime.start.p0(i64 64, ptr %7) #12
  call void @llvm.memcpy.p0.p0.i64(ptr align 16 %7, ptr align 16 @__const.Ntk_SymTryRandomFlips.Rand, i64 64, i1 false)
  call void @llvm.lifetime.start.p0(i64 4, ptr %8) #12
  call void @llvm.lifetime.start.p0(i64 4, ptr %9) #12
  %11 = load i32, ptr %6, align 4, !tbaa !8
  %12 = call i32 @Abc_TtWordNum(i32 noundef %11)
  store i32 %12, ptr %9, align 4, !tbaa !8
  call void @llvm.lifetime.start.p0(i64 8, ptr %10) #12
  %13 = load i32, ptr %9, align 4, !tbaa !8
  %14 = sext i32 %13 to i64
  %15 = call noalias ptr @calloc(i64 noundef %14, i64 noundef 8) #13
  store ptr %15, ptr %10, align 8, !tbaa !14
  %16 = load ptr, ptr %10, align 8, !tbaa !14
  %17 = load ptr, ptr %4, align 8, !tbaa !14
  %18 = load i32, ptr %9, align 4, !tbaa !8
  call void @Abc_TtCopy(ptr noundef %16, ptr noundef %17, i32 noundef %18, i32 noundef 0)
  store i32 0, ptr %8, align 4, !tbaa !8
  br label %19

19:                                               ; preds = %32, %3
  %20 = load i32, ptr %8, align 4, !tbaa !8
  %21 = icmp slt i32 %20, 16
  br i1 %21, label %22, label %35

22:                                               ; preds = %19
  %23 = load ptr, ptr %10, align 8, !tbaa !14
  %24 = load i32, ptr %9, align 4, !tbaa !8
  %25 = load i32, ptr %8, align 4, !tbaa !8
  %26 = sext i32 %25 to i64
  %27 = getelementptr inbounds [16 x i32], ptr %7, i64 0, i64 %26
  %28 = load i32, ptr %27, align 4, !tbaa !8
  %29 = load i32, ptr %6, align 4, !tbaa !8
  %30 = sub nsw i32 %29, 1
  %31 = srem i32 %28, %30
  call void @Abc_TtFlip(ptr noundef %23, i32 noundef %24, i32 noundef %31)
  br label %32

32:                                               ; preds = %22
  %33 = load i32, ptr %8, align 4, !tbaa !8
  %34 = add nsw i32 %33, 1
  store i32 %34, ptr %8, align 4, !tbaa !8
  br label %19, !llvm.loop !16

35:                                               ; preds = %19
  %36 = load ptr, ptr %10, align 8, !tbaa !14
  %37 = icmp ne ptr %36, null
  br i1 %37, label %38, label %40

38:                                               ; preds = %35
  %39 = load ptr, ptr %10, align 8, !tbaa !14
  call void @free(ptr noundef %39) #12
  store ptr null, ptr %10, align 8, !tbaa !14
  br label %41

40:                                               ; preds = %35
  br label %41

41:                                               ; preds = %40, %38
  call void @llvm.lifetime.end.p0(i64 8, ptr %10) #12
  call void @llvm.lifetime.end.p0(i64 4, ptr %9) #12
  call void @llvm.lifetime.end.p0(i64 4, ptr %8) #12
  call void @llvm.lifetime.end.p0(i64 64, ptr %7) #12
  ret void
}