; Function Attrs: nounwind uwtable
define void @Ntk_SymTryRandomFlips(ptr noundef readonly captures(none) %0, ptr noundef readnone captures(none) %1, i32 noundef %2) local_unnamed_addr #0 {
  %4 = icmp slt i32 %2, 7
  %5 = add nsw i32 %2, -6
  %6 = shl nuw i32 1, %5
  %7 = select i1 %4, i32 1, i32 %6
  %8 = sext i32 %7 to i64
  %9 = tail call noalias ptr @calloc(i64 noundef %8, i64 noundef 8) #20
  %10 = icmp sgt i32 %7, 0
  br i1 %10, label %Abc_TtCopy.exit, label %.split

Abc_TtCopy.exit:                                  ; preds = %3
  %wide.trip.count24.i = zext nneg i32 %7 to i64
  %11 = shl nuw nsw i64 %wide.trip.count24.i, 3
  tail call void @llvm.memcpy.p0.p0.i64(ptr noundef nonnull align 8 dereferenceable(1) %9, ptr noundef nonnull align 8 dereferenceable(1) %0, i64 %11, i1 false), !tbaa !59
  %12 = add nsw i32 %2, -1
  %13 = icmp eq i32 %7, 1
  %14 = getelementptr inbounds nuw i64, ptr %9, i64 %8
  br i1 %13, label %.split.thread, label %Abc_TtCopy.exit.split.split.us

Abc_TtCopy.exit.split.split.us:                   ; preds = %Abc_TtCopy.exit, %Abc_TtFlip.exit.us16
  %indvars.iv = phi i64 [ %indvars.iv.next, %Abc_TtFlip.exit.us16 ], [ 0, %Abc_TtCopy.exit ]
  %15 = getelementptr inbounds nuw [16 x i32], ptr @__const.Ntk_SymTryRandomFlips.Rand, i64 0, i64 %indvars.iv
  %16 = load i32, ptr %15, align 4, !tbaa !50
  %17 = srem i32 %16, %12
  %18 = icmp slt i32 %17, 6
  br i1 %18, label %.lr.ph.i.us, label %.preheader.lr.ph.i.us

.preheader.lr.ph.i.us:                            ; preds = %Abc_TtCopy.exit.split.split.us
  %19 = add nsw i32 %17, -6
  %.not.i.us = icmp eq i32 %19, 31
  %20 = shl i32 2, %19
  %21 = sext i32 %20 to i64
  br i1 %.not.i.us, label %Abc_TtFlip.exit.us16, label %.preheader.us.preheader.i.us

.preheader.us.preheader.i.us:                     ; preds = %.preheader.lr.ph.i.us
  %22 = shl nuw i32 1, %19
  %23 = sext i32 %22 to i64
  %smax.i.us = tail call i32 @llvm.smax.i32(i32 %22, i32 1)
  %wide.trip.count.i.us = zext nneg i32 %smax.i.us to i64
  br label %.preheader.us.i.us

.preheader.us.i.us:                               ; preds = %._crit_edge.us.i.us, %.preheader.us.preheader.i.us
  %.051.us.i.us = phi ptr [ %28, %._crit_edge.us.i.us ], [ %9, %.preheader.us.preheader.i.us ]
  %invariant.gep.i.us = getelementptr i64, ptr %.051.us.i.us, i64 %23
  br label %24

24:                                               ; preds = %24, %.preheader.us.i.us
  %indvars.iv.i.us = phi i64 [ 0, %.preheader.us.i.us ], [ %indvars.iv.next.i.us, %24 ]
  %25 = getelementptr inbounds nuw i64, ptr %.051.us.i.us, i64 %indvars.iv.i.us
  %26 = load i64, ptr %25, align 8, !tbaa !59
  %gep.i.us = getelementptr i64, ptr %invariant.gep.i.us, i64 %indvars.iv.i.us
  %27 = load i64, ptr %gep.i.us, align 8, !tbaa !59
  store i64 %27, ptr %25, align 8, !tbaa !59
  store i64 %26, ptr %gep.i.us, align 8, !tbaa !59
  %indvars.iv.next.i.us = add nuw nsw i64 %indvars.iv.i.us, 1
  %exitcond.not.i.us = icmp eq i64 %indvars.iv.next.i.us, %wide.trip.count.i.us
  br i1 %exitcond.not.i.us, label %._crit_edge.us.i.us, label %24, !llvm.loop !60

._crit_edge.us.i.us:                              ; preds = %24
  %28 = getelementptr inbounds i64, ptr %.051.us.i.us, i64 %21
  %29 = icmp ult ptr %28, %14
  br i1 %29, label %.preheader.us.i.us, label %Abc_TtFlip.exit.us16, !llvm.loop !61

.lr.ph.i.us:                                      ; preds = %Abc_TtCopy.exit.split.split.us
  %30 = shl nuw nsw i32 1, %17
  %31 = zext nneg i32 %30 to i64
  %32 = sext i32 %17 to i64
  %33 = getelementptr inbounds [6 x i64], ptr @s_Truths6, i64 0, i64 %32
  %34 = load i64, ptr %33, align 8, !tbaa !59
  br label %35

35:                                               ; preds = %35, %.lr.ph.i.us
  %indvars.iv56.i.us = phi i64 [ 0, %.lr.ph.i.us ], [ %indvars.iv.next57.i.us, %35 ]
  %36 = getelementptr inbounds nuw i64, ptr %9, i64 %indvars.iv56.i.us
  %37 = load i64, ptr %36, align 8, !tbaa !59
  %38 = shl i64 %37, %31
  %39 = and i64 %38, %34
  %40 = and i64 %37, %34
  %41 = lshr i64 %40, %31
  %42 = or i64 %41, %39
  store i64 %42, ptr %36, align 8, !tbaa !59
  %indvars.iv.next57.i.us = add nuw nsw i64 %indvars.iv56.i.us, 1
  %exitcond60.not.i.us = icmp eq i64 %indvars.iv.next57.i.us, %wide.trip.count24.i
  br i1 %exitcond60.not.i.us, label %Abc_TtFlip.exit.us16, label %35, !llvm.loop !62

Abc_TtFlip.exit.us16:                             ; preds = %._crit_edge.us.i.us, %35, %.preheader.lr.ph.i.us
  %indvars.iv.next = add nuw nsw i64 %indvars.iv, 1
  %exitcond.not = icmp eq i64 %indvars.iv.next, 16
  br i1 %exitcond.not, label %.split, label %Abc_TtCopy.exit.split.split.us, !llvm.loop !63

.split:                                           ; preds = %Abc_TtFlip.exit.us16, %3
  %.not = icmp eq ptr %9, null
  br i1 %.not, label %43, label %.split.thread

.split.thread:                                    ; preds = %Abc_TtCopy.exit, %.split
  tail call void @free(ptr noundef nonnull %9) #17
  br label %43

43:                                               ; preds = %.split, %.split.thread
  ret void
}